
Allocating common symbols
Common symbol       size              file

pcb2                0x44              build/kmain.o
p2                  0x4               build/kmain.o
kernel_heap_limit   0x4               build/kheap.o
kmain_process       0x44              build/sched.o
p1                  0x4               build/kmain.o
kernel_heap_top     0x4               build/kheap.o
nprocess            0x4               build/kernel.o
pcb1                0x44              build/kmain.o
current_process     0x4               build/kernel.o
uart_error          0x4               build/uart.o

Memory Configuration

Name             Origin             Length             Attributes
RAM              0x0000000000008000 0x000000001fff8000
PERIPHERALS      0x0000000020000000 0x0000000000ffffff
*default*        0x0000000000000000 0xffffffffffffffff

Linker script and memory map

LOAD build/asm_tools.o
LOAD build/hw.o
LOAD build/init.o
LOAD build/kernel.o
LOAD build/kheap.o
LOAD build/sched.o
LOAD build/syscall.o
LOAD build/uart.o
LOAD build/util.o
LOAD build/kmain.o
                0x0000000000000200                KERNEL_STACK_SIZE = 0x200
                0x0000000000000200                SYS_STACK_SIZE = 0x200
                0x0000000000000200                IRQ_STACK_SIZE = 0x200
                0x0000000000100000                USER_STACKS_SIZE = 0x100000

.text           0x0000000000008000     0x1914
 build/init.o(.text*)
 .text          0x0000000000008000       0x10 build/init.o
                0x0000000000008000                CORE0_READY
                0x0000000000008004                CORE1_READY
                0x0000000000008008                CORE2_READY
                0x000000000000800c                CORE3_READY
 .text.boot     0x0000000000008010      0x24c build/init.o
                0x0000000000008010                _start
 *(.text*)
 .text          0x000000000000825c       0x48 build/asm_tools.o
                0x000000000000825c                Set32
                0x0000000000008264                Get32
                0x000000000000826c                delay
                0x0000000000008280                memory_barrier
                0x0000000000008298                invalidate_cache
 .text          0x00000000000082a4      0x40c build/hw.o
                0x00000000000082a4                divide
                0x000000000000831c                get_date_ms
                0x0000000000008340                set_date_ms
                0x00000000000083e8                set_next_tick
                0x0000000000008444                set_next_tick_default
                0x0000000000008494                timer_init
                0x00000000000084c4                led_on
                0x0000000000008508                led_off
                0x000000000000854c                led_switch
                0x0000000000008580                led_status
                0x0000000000008598                led_init
                0x00000000000085d0                led_blink
                0x0000000000008668                hw_init
                0x000000000000867c                terminate_kernel
 .text          0x00000000000086b0      0x1a4 build/kernel.o
                0x00000000000086b0                kernel_init
                0x000000000000884c                reset_handler
 .text          0x0000000000008854      0x3f4 build/kheap.o
                0x0000000000008854                aligned_value
                0x00000000000088a0                kAlloc_aligned
                0x0000000000008a84                kAlloc
                0x0000000000008b9c                kFree
                0x0000000000008bfc                kheap_init
 .text          0x0000000000008c48      0x184 build/sched.o
                0x0000000000008c48                sched_init
                0x0000000000008c8c                sys_yieldto
                0x0000000000008cb4                do_sys_yieldto
                0x0000000000008dc8                irq_handler
 .text          0x0000000000008dcc      0x260 build/syscall.o
                0x0000000000008dcc                sys_reboot
                0x0000000000008de0                do_sys_reboot
                0x0000000000008dec                sys_nop
                0x0000000000008e00                do_sys_nop
                0x0000000000008e08                sys_settime
                0x0000000000008e5c                do_sys_settime
                0x0000000000008ec8                sys_gettime
                0x0000000000008f38                do_sys_gettime
                0x0000000000008f9c                swi_handler
 .text          0x000000000000902c      0x608 build/uart.o
                0x000000000000902c                uart_init
                0x00000000000090e8                uart_send_str
                0x0000000000009184                uart_send_int
                0x0000000000009360                uart_receive_str
                0x000000000000943c                uart_receive_int
                0x0000000000009600                uart_is_receive_fifo_empty
 .text          0x0000000000009634       0x50 build/util.o
                0x0000000000009634                kernel_panic
 .text          0x0000000000009684      0x290 build/kmain.o
                0x0000000000009684                user_process_1
                0x0000000000009704                user_process_2
                0x0000000000009784                kmain
                0x0000000000009914                __bss_start__ = .

.glue_7         0x0000000000009914        0x0
 .glue_7        0x0000000000009914        0x0 linker stubs

.glue_7t        0x0000000000009914        0x0
 .glue_7t       0x0000000000009914        0x0 linker stubs

.vfp11_veneer   0x0000000000009914        0x0
 .vfp11_veneer  0x0000000000009914        0x0 linker stubs

.v4_bx          0x0000000000009914        0x0
 .v4_bx         0x0000000000009914        0x0 linker stubs

.iplt           0x0000000000009914        0x0
 .iplt          0x0000000000009914        0x0 build/asm_tools.o

.bss            0x0000000000009914       0xf0
 *(.bss*)
 .bss           0x0000000000009914        0x0 build/asm_tools.o
 .bss           0x0000000000009914        0x4 build/hw.o
 .bss           0x0000000000009918        0x0 build/init.o
 .bss           0x0000000000009918        0x0 build/kernel.o
 .bss           0x0000000000009918        0x4 build/kheap.o
                0x0000000000009918                freelist
 .bss           0x000000000000991c        0x0 build/sched.o
 .bss           0x000000000000991c        0x0 build/syscall.o
 .bss           0x000000000000991c        0x0 build/uart.o
 .bss           0x000000000000991c        0x0 build/util.o
 .bss           0x000000000000991c        0x0 build/kmain.o
 COMMON         0x000000000000991c        0x8 build/kernel.o
                0x000000000000991c                nprocess
                0x0000000000009920                current_process
 COMMON         0x0000000000009924        0x8 build/kheap.o
                0x0000000000009924                kernel_heap_limit
                0x0000000000009928                kernel_heap_top
 COMMON         0x000000000000992c       0x44 build/sched.o
                0x000000000000992c                kmain_process
 COMMON         0x0000000000009970        0x4 build/uart.o
                0x0000000000009970                uart_error
 COMMON         0x0000000000009974       0x90 build/kmain.o
                0x0000000000009974                pcb2
                0x00000000000099b8                p2
                0x00000000000099bc                p1
                0x00000000000099c0                pcb1
                0x0000000000009a04                __bss_end__ = .
                0x0000000000009a04                __rodata_start__ = .

.rodata         0x0000000000009a04       0xf8
 *(.rodata*)
 .rodata        0x0000000000009a04       0x15 build/hw.o
 *fill*         0x0000000000009a19        0x3 
 .rodata        0x0000000000009a1c       0x39 build/kernel.o
 *fill*         0x0000000000009a55        0x3 
 .rodata        0x0000000000009a58        0xe build/syscall.o
 *fill*         0x0000000000009a66        0x2 
 .rodata        0x0000000000009a68       0x28 build/uart.o
 .rodata        0x0000000000009a90       0x1a build/util.o
 *fill*         0x0000000000009aaa        0x2 
 .rodata        0x0000000000009aac       0x50 build/kmain.o
                0x0000000000009afc                __rodata_end__ = .
                0x0000000000009afc                __data_start__ = .

.rel.dyn        0x0000000000009afc        0x0
 .rel.iplt      0x0000000000009afc        0x0 build/asm_tools.o
 .rel.got       0x0000000000009afc        0x0 build/asm_tools.o

.data           0x0000000000009afc        0x0
 *(.data)
 .data          0x0000000000009afc        0x0 build/asm_tools.o
 .data          0x0000000000009afc        0x0 build/hw.o
 .data          0x0000000000009afc        0x0 build/init.o
 .data          0x0000000000009afc        0x0 build/kernel.o
 .data          0x0000000000009afc        0x0 build/kheap.o
 .data          0x0000000000009afc        0x0 build/sched.o
 .data          0x0000000000009afc        0x0 build/syscall.o
 .data          0x0000000000009afc        0x0 build/uart.o
 .data          0x0000000000009afc        0x0 build/util.o
 .data          0x0000000000009afc        0x0 build/kmain.o
                0x0000000000009afc                __data_end__ = .

.igot.plt       0x0000000000009afc        0x0
 .igot.plt      0x0000000000009afc        0x0 build/asm_tools.o

.got            0x0000000000009afc       0x4c
 .got           0x0000000000009afc       0x4c build/asm_tools.o

.got.plt        0x0000000000009b48        0xc
 .got.plt       0x0000000000009b48        0xc build/asm_tools.o
                0x0000000000009b48                _GLOBAL_OFFSET_TABLE_

.stack_core0    0x0000000000009b54      0x600
                0x0000000000009b54                __stack_core1_start__ = .
                0x0000000000009d54                . = (. + KERNEL_STACK_SIZE)
 *fill*         0x0000000000009b54      0x200 
                0x0000000000009d54                . = ALIGN (0x4)
                0x0000000000009d54                __svc_stack_core0__ = .
                0x0000000000009f54                . = (. + SYS_STACK_SIZE)
 *fill*         0x0000000000009d54      0x200 
                0x0000000000009f54                . = ALIGN (0x4)
                0x0000000000009f54                __sys_stack_core0__ = .
                0x000000000000a154                . = (. + IRQ_STACK_SIZE)
 *fill*         0x0000000000009f54      0x200 
                0x000000000000a154                . = ALIGN (0x4)
                0x000000000000a154                __irq_stack_core0__ = .
                0x000000000000a154                __stacks_core0_end__ = .

.stack_core1    0x000000000000a154      0x600
                0x000000000000a154                __stack_core1_start__ = .
                0x000000000000a354                . = (. + KERNEL_STACK_SIZE)
 *fill*         0x000000000000a154      0x200 
                0x000000000000a354                . = ALIGN (0x4)
                0x000000000000a354                __svc_stack_core1__ = .
                0x000000000000a554                . = (. + SYS_STACK_SIZE)
 *fill*         0x000000000000a354      0x200 
                0x000000000000a554                . = ALIGN (0x4)
                0x000000000000a554                __sys_stack_core1__ = .
                0x000000000000a754                . = (. + IRQ_STACK_SIZE)
 *fill*         0x000000000000a554      0x200 
                0x000000000000a754                . = ALIGN (0x4)
                0x000000000000a754                __irq_stack_core1__ = .
                0x000000000000a754                __stacks_core1_end__ = .

.stack_core2    0x000000000000a754      0x600
                0x000000000000a754                __stack_core2_start__ = .
                0x000000000000a954                . = (. + KERNEL_STACK_SIZE)
 *fill*         0x000000000000a754      0x200 
                0x000000000000a954                . = ALIGN (0x4)
                0x000000000000a954                __svc_stack_core2__ = .
                0x000000000000ab54                . = (. + SYS_STACK_SIZE)
 *fill*         0x000000000000a954      0x200 
                0x000000000000ab54                . = ALIGN (0x4)
                0x000000000000ab54                __sys_stack_core2__ = .
                0x000000000000ad54                . = (. + IRQ_STACK_SIZE)
 *fill*         0x000000000000ab54      0x200 
                0x000000000000ad54                . = ALIGN (0x4)
                0x000000000000ad54                __irq_stack_core2__ = .
                0x000000000000ad54                __stacks_core2_end__ = .

.stack_core3    0x000000000000ad54      0x600
                0x000000000000ad54                __stack_core3_start__ = .
                0x000000000000af54                . = (. + KERNEL_STACK_SIZE)
 *fill*         0x000000000000ad54      0x200 
                0x000000000000af54                . = ALIGN (0x4)
                0x000000000000af54                __svc_stack_core3__ = .
                0x000000000000b154                . = (. + SYS_STACK_SIZE)
 *fill*         0x000000000000af54      0x200 
                0x000000000000b154                . = ALIGN (0x4)
                0x000000000000b154                __sys_stack_core3__ = .
                0x000000000000b354                . = (. + IRQ_STACK_SIZE)
 *fill*         0x000000000000b154      0x200 
                0x000000000000b354                . = ALIGN (0x4)
                0x000000000000b354                __irq_stack_core3__ = .
                0x000000000000b354                __stacks_core3_end__ = .
                0x000000000000c000                . = ALIGN (0x1000)
                0x000000000000c000                __kernel_heap_start__ = .
                0x0000000000ffffff                . = 0xffffff
                0x0000000000ffffff                __kernel_heap_end__ = .
                0x0000000001000000                . = ALIGN (0x1000)
                0x0000000001000000                __after_kernel_heap__ = .
                0x0000000020000000                . = 0x20000000

.devices        0x0000000020000000   0xffffff
                0x0000000020000000                __devices_start__ = .
                0x0000000020ffffff                . = (. + 0xffffff)
 *fill*         0x0000000020000000   0xffffff 
                0x0000000020ffffff                __devices_end__ = .
OUTPUT(build/kernel.elf elf32-littlearm)

.ARM.attributes
                0x0000000000000000       0x37
 .ARM.attributes
                0x0000000000000000       0x29 build/asm_tools.o
 .ARM.attributes
                0x0000000000000029       0x3b build/hw.o
 .ARM.attributes
                0x0000000000000064       0x29 build/init.o
 .ARM.attributes
                0x000000000000008d       0x3b build/kernel.o
 .ARM.attributes
                0x00000000000000c8       0x3b build/kheap.o
 .ARM.attributes
                0x0000000000000103       0x3b build/sched.o
 .ARM.attributes
                0x000000000000013e       0x3b build/syscall.o
 .ARM.attributes
                0x0000000000000179       0x3b build/uart.o
 .ARM.attributes
                0x00000000000001b4       0x3b build/util.o
 .ARM.attributes
                0x00000000000001ef       0x3b build/kmain.o

.comment        0x0000000000000000       0x7e
 .comment       0x0000000000000000       0x7e build/hw.o
                                         0x7f (size before relaxing)
 .comment       0x000000000000007e       0x7f build/kernel.o
 .comment       0x000000000000007e       0x7f build/kheap.o
 .comment       0x000000000000007e       0x7f build/sched.o
 .comment       0x000000000000007e       0x7f build/syscall.o
 .comment       0x000000000000007e       0x7f build/uart.o
 .comment       0x000000000000007e       0x7f build/util.o
 .comment       0x000000000000007e       0x7f build/kmain.o

.debug_line     0x0000000000000000      0x86e
 .debug_line    0x0000000000000000       0x4e build/asm_tools.o
 .debug_line    0x000000000000004e      0x118 build/hw.o
 .debug_line    0x0000000000000166       0xd0 build/init.o
 .debug_line    0x0000000000000236       0xd4 build/kernel.o
 .debug_line    0x000000000000030a      0x11a build/kheap.o
 .debug_line    0x0000000000000424       0xfb build/sched.o
 .debug_line    0x000000000000051f       0xfb build/syscall.o
 .debug_line    0x000000000000061a       0xf9 build/uart.o
 .debug_line    0x0000000000000713       0x51 build/util.o
 .debug_line    0x0000000000000764      0x10a build/kmain.o

.debug_info     0x0000000000000000     0x11bc
 .debug_info    0x0000000000000000       0x26 build/asm_tools.o
 .debug_info    0x0000000000000026      0x2a1 build/hw.o
 .debug_info    0x00000000000002c7       0x26 build/init.o
 .debug_info    0x00000000000002ed      0x197 build/kernel.o
 .debug_info    0x0000000000000484      0x2cc build/kheap.o
 .debug_info    0x0000000000000750      0x25d build/sched.o
 .debug_info    0x00000000000009ad      0x2e9 build/syscall.o
 .debug_info    0x0000000000000c96      0x266 build/uart.o
 .debug_info    0x0000000000000efc       0xb6 build/util.o
 .debug_info    0x0000000000000fb2      0x20a build/kmain.o

.debug_abbrev   0x0000000000000000      0x8ac
 .debug_abbrev  0x0000000000000000       0x14 build/asm_tools.o
 .debug_abbrev  0x0000000000000014      0x155 build/hw.o
 .debug_abbrev  0x0000000000000169       0x14 build/init.o
 .debug_abbrev  0x000000000000017d       0xcd build/kernel.o
 .debug_abbrev  0x000000000000024a      0x154 build/kheap.o
 .debug_abbrev  0x000000000000039e      0x121 build/sched.o
 .debug_abbrev  0x00000000000004bf      0x164 build/syscall.o
 .debug_abbrev  0x0000000000000623      0x117 build/uart.o
 .debug_abbrev  0x000000000000073a       0x6d build/util.o
 .debug_abbrev  0x00000000000007a7      0x105 build/kmain.o

.debug_aranges  0x0000000000000000      0x140
 .debug_aranges
                0x0000000000000000       0x20 build/asm_tools.o
 .debug_aranges
                0x0000000000000020       0x20 build/hw.o
 .debug_aranges
                0x0000000000000040       0x20 build/init.o
 .debug_aranges
                0x0000000000000060       0x20 build/kernel.o
 .debug_aranges
                0x0000000000000080       0x20 build/kheap.o
 .debug_aranges
                0x00000000000000a0       0x20 build/sched.o
 .debug_aranges
                0x00000000000000c0       0x20 build/syscall.o
 .debug_aranges
                0x00000000000000e0       0x20 build/uart.o
 .debug_aranges
                0x0000000000000100       0x20 build/util.o
 .debug_aranges
                0x0000000000000120       0x20 build/kmain.o

.debug_str      0x0000000000000000      0x677
 .debug_str     0x0000000000000000       0x48 build/asm_tools.o
 .debug_str     0x0000000000000048      0x210 build/hw.o
                                        0x275 (size before relaxing)
 .debug_str     0x0000000000000258        0xb build/init.o
                                         0x43 (size before relaxing)
 .debug_str     0x0000000000000263      0x100 build/kernel.o
                                        0x262 (size before relaxing)
 .debug_str     0x0000000000000363      0x10e build/kheap.o
                                        0x296 (size before relaxing)
 .debug_str     0x0000000000000471       0x97 build/sched.o
                                        0x2ec (size before relaxing)
 .debug_str     0x0000000000000508       0x5c build/syscall.o
                                        0x28c (size before relaxing)
 .debug_str     0x0000000000000564       0xb7 build/uart.o
                                        0x215 (size before relaxing)
 .debug_str     0x000000000000061b       0x26 build/util.o
                                        0x184 (size before relaxing)
 .debug_str     0x0000000000000641       0x36 build/kmain.o
                                        0x271 (size before relaxing)

.debug_frame    0x0000000000000000      0x4c4
 .debug_frame   0x0000000000000000      0x178 build/hw.o
 .debug_frame   0x0000000000000178       0x38 build/kernel.o
 .debug_frame   0x00000000000001b0       0xa0 build/kheap.o
 .debug_frame   0x0000000000000250       0x60 build/sched.o
 .debug_frame   0x00000000000002b0       0xd8 build/syscall.o
 .debug_frame   0x0000000000000388       0xb4 build/uart.o
 .debug_frame   0x000000000000043c       0x28 build/util.o
 .debug_frame   0x0000000000000464       0x60 build/kmain.o
